#include <math.h>
#include <stdio.h>
#include <stdlib.h>
#include <string.h>
#include <iostream>
using namespace std;

int main()
{
    int A, B, C, D, E;
	for (A = 1; A <= 5; A++)
		for (B = 1; B <= 5; B++)
		if(B != A)
			for (C = 1; C <= 5; C++)
		if(C != A && C!= B)
			for (D = 1; D <= 5; D++)
		if(D != A && D!= B && D != C)
			for (E = 1; E <= 5; E++)
		if(E != A && E!= B && E != C && E != D && E != 2 && E != 3)
			if ((A == 2 && E == 1) || ( E != 1 && A != 1 && A != 2))
				if(B != 1)
					if((A == 5 && (C==1 || C==2)) || ((A != 5)&& (C!=1 && C!=2)))
						if((C!=1 &&(D==1 || D==2)) || (C ==1 &&(D!=1 && D!=2)))
							if (((E != 1 && E != 2) && D != 1) ||(( D == 1) && (E == 1 || E == 2)))
							   cout << A <<" " << B <<" "<< C <<" "<< D <<" "<< E;
	return 0;
}